; Function Attrs: mustprogress nounwind uwtable
define void @rocksdb_perfcontext_destroy(ptr noundef %0) local_unnamed_addr #6 {
  %2 = icmp eq ptr %0, null
  br i1 %2, label %4, label %3

3:                                                ; preds = %1
  tail call void @_ZdlPvm(ptr noundef nonnull %0, i64 noundef 8) #45
  br label %4

4:                                                ; preds = %3, %1
  ret void
}